; Function Attrs: nounwind uwtable
define internal fastcc i32 @background_thread_create_signals_masked(ptr noundef %0, ptr noundef %1) unnamed_addr #0 {
  %3 = alloca %struct.__sigset_t, align 8
  %4 = alloca %struct.__sigset_t, align 8
  call void @llvm.lifetime.start.p0(i64 128, ptr nonnull %3) #12
  %5 = call i32 @sigfillset(ptr noundef nonnull %3) #12
  call void @llvm.lifetime.start.p0(i64 128, ptr nonnull %4) #12
  %6 = call i32 @pthread_sigmask(i32 noundef 2, ptr noundef nonnull %3, ptr noundef nonnull %4) #12
  %.not = icmp eq i32 %6, 0
  br i1 %.not, label %7, label %15

7:                                                ; preds = %2
  %8 = load ptr, ptr @pthread_create_fptr, align 8, !tbaa !4, !noalias !52
  %9 = call i32 %8(ptr noundef %0, ptr noundef null, ptr noundef nonnull @background_thread_entry, ptr noundef %1) #12
  %10 = call i32 @pthread_sigmask(i32 noundef 2, ptr noundef nonnull %4, ptr noundef null) #12
  %.not12 = icmp eq i32 %10, 0
  br i1 %.not12, label %15, label %11

11:                                               ; preds = %7
  call void (ptr, ...) @je_malloc_printf(ptr noundef nonnull @.str.3, i32 noundef %9, i32 noundef %10) #12
  %12 = load i8, ptr @je_opt_abort, align 1, !tbaa !30, !range !31, !noundef !32
  %13 = trunc nuw i8 %12 to i1
  br i1 %13, label %14, label %15

14:                                               ; preds = %11
  call void @abort() #13
  unreachable

15:                                               ; preds = %7, %11, %2
  %.0 = phi i32 [ %6, %2 ], [ %9, %11 ], [ %9, %7 ]
  call void @llvm.lifetime.end.p0(i64 128, ptr nonnull %4) #12
  call void @llvm.lifetime.end.p0(i64 128, ptr nonnull %3) #12
  ret i32 %.0
}